; Function Attrs: nounwind uwtable
define internal fastcc zeroext i1 @ConnectionExists(ptr noundef %0, ptr noundef nonnull %1, ptr noundef nonnull writeonly captures(none) initializes((0, 8)) %2, ptr noundef nonnull writeonly captures(none) initializes((0, 1)) %3, ptr noundef nonnull writeonly captures(none) initializes((0, 1)) %4) unnamed_addr #0 {
  %6 = alloca %struct.url_conn_match, align 8
  call void @llvm.lifetime.start.p0(i64 32, ptr nonnull %6) #12
  call void @llvm.memset.p0.i64(ptr noundef nonnull align 8 dereferenceable(32) %6, i8 0, i64 32, i1 false)
  %7 = getelementptr inbounds nuw i8, ptr %6, i64 8
  store ptr %0, ptr %7, align 8, !tbaa !287
  %8 = getelementptr inbounds nuw i8, ptr %6, i64 16
  store ptr %1, ptr %8, align 8, !tbaa !289
  %9 = getelementptr inbounds nuw i8, ptr %1, i64 928
  %10 = load ptr, ptr %9, align 8, !tbaa !203
  %11 = getelementptr inbounds nuw i8, ptr %10, i64 140
  %12 = load i32, ptr %11, align 4, !tbaa !217
  %13 = and i32 %12, -1073741821
  %.not.i = icmp eq i32 %13, 0
  br i1 %.not.i, label %26, label %14

14:                                               ; preds = %5
  %15 = getelementptr inbounds nuw i8, ptr %1, i64 920
  %16 = load i64, ptr %15, align 8
  %17 = and i64 %16, 8224
  %or.cond.not.i = icmp eq i64 %17, 8224
  br i1 %or.cond.not.i, label %26, label %18

18:                                               ; preds = %14
  %19 = getelementptr inbounds nuw i8, ptr %0, i64 208
  %20 = load ptr, ptr %19, align 8, !tbaa !86
  %21 = tail call zeroext i1 @Curl_multiplex_wanted(ptr noundef %20) #12
  br i1 %21, label %22, label %26

22:                                               ; preds = %18
  %23 = getelementptr inbounds nuw i8, ptr %0, i64 4872
  %24 = load i8, ptr %23, align 8, !tbaa !290
  %25 = icmp ugt i8 %24, 2
  br i1 %25, label %xfer_may_multiplex.exit, label %26

26:                                               ; preds = %22, %18, %14, %5
  br label %xfer_may_multiplex.exit

xfer_may_multiplex.exit:                          ; preds = %22, %26
  %.0.i = phi i8 [ 0, %26 ], [ 1, %22 ]
  %27 = getelementptr inbounds nuw i8, ptr %0, i64 3272
  %28 = load i64, ptr %27, align 8, !tbaa !291
  %29 = and i64 %28, 8
  %.not = icmp eq i64 %29, 0
  br i1 %.not, label %36, label %30

30:                                               ; preds = %xfer_may_multiplex.exit
  %31 = load ptr, ptr %9, align 8, !tbaa !203
  %32 = getelementptr inbounds nuw i8, ptr %31, i64 140
  %33 = load i32, ptr %32, align 4, !tbaa !217
  %34 = and i32 %33, -1073741821
  %.not15 = icmp eq i32 %34, 0
  %35 = select i1 %.not15, i8 0, i8 2
  br label %36

36:                                               ; preds = %30, %xfer_may_multiplex.exit
  %37 = phi i8 [ 0, %xfer_may_multiplex.exit ], [ %35, %30 ]
  %38 = getelementptr inbounds nuw i8, ptr %1, i64 920
  %39 = load i64, ptr %38, align 8
  %40 = and i64 %39, 4
  %.not16 = icmp eq i64 %40, 0
  br i1 %.not16, label %51, label %41

41:                                               ; preds = %36
  %42 = getelementptr inbounds nuw i8, ptr %0, i64 3304
  %43 = load i64, ptr %42, align 8, !tbaa !292
  %44 = and i64 %43, 8
  %.not17 = icmp eq i64 %44, 0
  br i1 %.not17, label %51, label %45

45:                                               ; preds = %41
  %46 = load ptr, ptr %9, align 8, !tbaa !203
  %47 = getelementptr inbounds nuw i8, ptr %46, i64 140
  %48 = load i32, ptr %47, align 4, !tbaa !217
  %49 = and i32 %48, -1073741821
  %.not18 = icmp eq i32 %49, 0
  %50 = select i1 %.not18, i8 0, i8 4
  br label %51

51:                                               ; preds = %45, %41, %36
  %52 = phi i8 [ 0, %41 ], [ 0, %36 ], [ %50, %45 ]
  %53 = or disjoint i8 %37, %.0.i
  %54 = getelementptr inbounds nuw i8, ptr %6, i64 24
  %55 = or disjoint i8 %52, %53
  store i8 %55, ptr %54, align 8
  %56 = getelementptr inbounds nuw i8, ptr %1, i64 56
  %57 = load ptr, ptr %56, align 8, !tbaa !195
  %58 = getelementptr inbounds nuw i8, ptr %1, i64 64
  %59 = load i64, ptr %58, align 8, !tbaa !283
  %60 = call zeroext i1 @Curl_cpool_find(ptr noundef nonnull %0, ptr noundef %57, i64 noundef %59, ptr noundef nonnull @url_match_conn, ptr noundef nonnull @url_match_result, ptr noundef nonnull %6) #12
  %61 = load ptr, ptr %6, align 8, !tbaa !293
  store ptr %61, ptr %2, align 8, !tbaa !225
  %62 = load i8, ptr %54, align 8
  %63 = lshr i8 %62, 4
  %.lobit = and i8 %63, 1
  store i8 %.lobit, ptr %3, align 1, !tbaa !206
  %64 = lshr i8 %62, 3
  %.lobit19 = and i8 %64, 1
  store i8 %.lobit19, ptr %4, align 1, !tbaa !206
  call void @llvm.lifetime.end.p0(i64 32, ptr nonnull %6) #12
  ret i1 %60
}